; Function Attrs: mustprogress uwtable
define noundef ptr @proj_concatoperation_get_step(ptr noundef %0, ptr noundef readonly %1, i32 noundef %2) local_unnamed_addr #2 personality ptr @__gxx_personality_v0 {
  %4 = alloca %"struct.osgeo::proj::util::BaseObjectNNPtr", align 8
  %5 = icmp eq ptr %0, null
  br i1 %5, label %6, label %8

6:                                                ; preds = %3
  %7 = tail call noundef ptr @_Z18pj_get_default_ctxv()
  br label %8

8:                                                ; preds = %3, %6
  %.017 = phi ptr [ %7, %6 ], [ %0, %3 ]
  %.not = icmp eq ptr %1, null
  br i1 %.not, label %9, label %10

9:                                                ; preds = %8
  tail call void @_Z22proj_context_errno_setP6pj_ctxi(ptr noundef %.017, i32 noundef 4097)
  tail call fastcc void @_ZL14proj_log_errorP6pj_ctxPKcS2_(ptr noundef %.017, ptr noundef nonnull @__FUNCTION__.proj_concatoperation_get_step, ptr noundef nonnull @.str.2)
  br label %47

10:                                               ; preds = %8
  %11 = getelementptr inbounds i8, ptr %1, i64 640
  %12 = load ptr, ptr %11, align 8
  %13 = icmp eq ptr %12, null
  br i1 %13, label %.thread, label %14

14:                                               ; preds = %10
  %15 = tail call ptr @__dynamic_cast(ptr nonnull %12, ptr nonnull @_ZTIN5osgeo4proj4util10BaseObjectE, ptr nonnull @_ZTIN5osgeo4proj9operation21ConcatenatedOperationE, i64 0) #27
  %.not24 = icmp eq ptr %15, null
  br i1 %.not24, label %.thread, label %16

.thread:                                          ; preds = %10, %14
  tail call fastcc void @_ZL14proj_log_errorP6pj_ctxPKcS2_(ptr noundef %.017, ptr noundef nonnull @__FUNCTION__.proj_concatoperation_get_step, ptr noundef nonnull @.str.79)
  br label %47

16:                                               ; preds = %14
  %17 = tail call noundef nonnull align 8 dereferenceable(24) ptr @_ZNK5osgeo4proj9operation21ConcatenatedOperation10operationsEv(ptr noundef nonnull align 8 dereferenceable(80) %15)
  %18 = icmp slt i32 %2, 0
  br i1 %18, label %28, label %19

19:                                               ; preds = %16
  %20 = zext nneg i32 %2 to i64
  %21 = getelementptr inbounds i8, ptr %17, i64 8
  %22 = load ptr, ptr %21, align 8
  %23 = load ptr, ptr %17, align 8
  %24 = ptrtoint ptr %22 to i64
  %25 = ptrtoint ptr %23 to i64
  %26 = sub i64 %24, %25
  %27 = ashr exact i64 %26, 4
  %.not25 = icmp ugt i64 %27, %20
  br i1 %.not25, label %29, label %28

28:                                               ; preds = %19, %16
  tail call fastcc void @_ZL14proj_log_errorP6pj_ctxPKcS2_(ptr noundef %.017, ptr noundef nonnull @__FUNCTION__.proj_concatoperation_get_step, ptr noundef nonnull @.str.80)
  br label %47

29:                                               ; preds = %19
  %30 = getelementptr inbounds %"class.dropbox::oxygen::nn.203", ptr %23, i64 %20
  %31 = load ptr, ptr %30, align 8
  store ptr %31, ptr %4, align 8
  %32 = getelementptr inbounds i8, ptr %4, i64 8
  %33 = getelementptr inbounds i8, ptr %30, i64 8
  %34 = load ptr, ptr %33, align 8
  store ptr %34, ptr %32, align 8
  %.not.i.i.i.i.i = icmp eq ptr %34, null
  br i1 %.not.i.i.i.i.i, label %_ZN5osgeo4proj4util15BaseObjectNNPtrC2INS0_9operation19CoordinateOperationEEERKN7dropbox6oxygen2nnISt10shared_ptrIT_EEE.exit, label %35

35:                                               ; preds = %29
  %36 = getelementptr inbounds i8, ptr %34, i64 8
  %37 = load i8, ptr @__libc_single_threaded, align 1
  %.not.i.i.i.i.i.i = icmp eq i8 %37, 0
  br i1 %.not.i.i.i.i.i.i, label %41, label %38

38:                                               ; preds = %35
  %39 = load i32, ptr %36, align 4
  %40 = add nsw i32 %39, 1
  store i32 %40, ptr %36, align 4
  br label %_ZN5osgeo4proj4util15BaseObjectNNPtrC2INS0_9operation19CoordinateOperationEEERKN7dropbox6oxygen2nnISt10shared_ptrIT_EEE.exit

41:                                               ; preds = %35
  %42 = atomicrmw volatile add ptr %36, i32 1 acq_rel, align 4
  br label %_ZN5osgeo4proj4util15BaseObjectNNPtrC2INS0_9operation19CoordinateOperationEEERKN7dropbox6oxygen2nnISt10shared_ptrIT_EEE.exit

_ZN5osgeo4proj4util15BaseObjectNNPtrC2INS0_9operation19CoordinateOperationEEERKN7dropbox6oxygen2nnISt10shared_ptrIT_EEE.exit: ; preds = %29, %38, %41
  %43 = invoke noundef ptr @_Z13pj_obj_createP6pj_ctxRKN5osgeo4proj4util15BaseObjectNNPtrE(ptr noundef %.017, ptr noundef nonnull align 8 dereferenceable(16) %4)
          to label %44 unwind label %45

44:                                               ; preds = %_ZN5osgeo4proj4util15BaseObjectNNPtrC2INS0_9operation19CoordinateOperationEEERKN7dropbox6oxygen2nnISt10shared_ptrIT_EEE.exit
  call void @_ZN5osgeo4proj4util15BaseObjectNNPtrD1Ev(ptr noundef nonnull align 8 dereferenceable(16) %4) #27
  br label %47

45:                                               ; preds = %_ZN5osgeo4proj4util15BaseObjectNNPtrC2INS0_9operation19CoordinateOperationEEERKN7dropbox6oxygen2nnISt10shared_ptrIT_EEE.exit
  %46 = landingpad { ptr, i32 }
          cleanup
  call void @_ZN5osgeo4proj4util15BaseObjectNNPtrD1Ev(ptr noundef nonnull align 8 dereferenceable(16) %4) #27
  resume { ptr, i32 } %46

47:                                               ; preds = %44, %28, %.thread, %9
  %.0 = phi ptr [ null, %28 ], [ %43, %44 ], [ null, %.thread ], [ null, %9 ]
  ret ptr %.0
}